libbitcoinconsensus.so.0:AES128_decrypt
libbitcoinconsensus.so.0:AES128_encrypt
libbitcoinconsensus.so.0:AES128_init
libbitcoinconsensus.so.0:AES192_decrypt
libbitcoinconsensus.so.0:AES192_encrypt
libbitcoinconsensus.so.0:AES192_init
libbitcoinconsensus.so.0:AES256_decrypt
libbitcoinconsensus.so.0:AES256_encrypt
libbitcoinconsensus.so.0:AES256_init
libbitcoinconsensus.so.0:_Z10CapitalizeNSt7__cxx1112basic_stringIcSt11char_traitsIcESaIcEEE
libbitcoinconsensus.so.0:_Z10CastToBoolRKSt6vectorIhSaIhEE
libbitcoinconsensus.so.0:_Z10EvalScriptRSt6vectorIS_IhSaIhEESaIS1_EERK7CScriptjRK20BaseSignatureChecker10SigVersionP13ScriptError_t
libbitcoinconsensus.so.0:_Z10ParseInt32RKNSt7__cxx1112basic_stringIcSt11char_traitsIcESaIcEEEPi
libbitcoinconsensus.so.0:_Z10ParseInt64RKNSt7__cxx1112basic_stringIcSt11char_traitsIcESaIcEEEPl
libbitcoinconsensus.so.0:_Z11GetScriptOpRN9prevectorILj28EhjiE14const_iteratorES1_R10opcodetypePSt6vectorIhSaIhEE
libbitcoinconsensus.so.0:_Z11IsHexNumberRKNSt7__cxx1112basic_stringIcSt11char_traitsIcESaIcEEE
libbitcoinconsensus.so.0:_Z11MurmurHash3jRKSt6vectorIhSaIhEE
libbitcoinconsensus.so.0:_Z11ParseDoubleRKNSt7__cxx1112basic_stringIcSt11char_traitsIcESaIcEEEPd
libbitcoinconsensus.so.0:_Z11ParseUInt32RKNSt7__cxx1112basic_stringIcSt11char_traitsIcESaIcEEEPj
libbitcoinconsensus.so.0:_Z11ParseUInt64RKNSt7__cxx1112basic_stringIcSt11char_traitsIcESaIcEEEPm
libbitcoinconsensus.so.0:_Z11UINT256_ONEv
libbitcoinconsensus.so.0:_Z12DecodeBase32PKcPb
libbitcoinconsensus.so.0:_Z12DecodeBase32RKNSt7__cxx1112basic_stringIcSt11char_traitsIcESaIcEEEPb
libbitcoinconsensus.so.0:_Z12DecodeBase64PKcPb
libbitcoinconsensus.so.0:_Z12DecodeBase64RKNSt7__cxx1112basic_stringIcSt11char_traitsIcESaIcEEEPb
libbitcoinconsensus.so.0:_Z12EncodeBase32B5cxx11PKhm
libbitcoinconsensus.so.0:_Z12EncodeBase32RKNSt7__cxx1112basic_stringIcSt11char_traitsIcESaIcEEE
libbitcoinconsensus.so.0:_Z12EncodeBase64B5cxx11PKhm
libbitcoinconsensus.so.0:_Z12EncodeBase64RKNSt7__cxx1112basic_stringIcSt11char_traitsIcESaIcEEE
libbitcoinconsensus.so.0:_Z12VerifyScriptRK7CScriptS1_PK14CScriptWitnessjRK20BaseSignatureCheckerP13ScriptError_t
libbitcoinconsensus.so.0:_Z13FindAndDeleteR7CScriptRKS_
libbitcoinconsensus.so.0:_Z13SplitHostPortNSt7__cxx1112basic_stringIcSt11char_traitsIcESaIcEEERiRS4_
libbitcoinconsensus.so.0:_Z13poly1305_authPhPKhmS1_
libbitcoinconsensus.so.0:_Z14ArithToUint256RK13arith_uint256
libbitcoinconsensus.so.0:_Z14SanitizeStringRKNSt7__cxx1112basic_stringIcSt11char_traitsIcESaIcEEEi
libbitcoinconsensus.so.0:_Z14SipHashUint256mmRK7uint256
libbitcoinconsensus.so.0:_Z14UintToArith256RK7uint256
libbitcoinconsensus.so.0:_Z14memory_cleansePvm
libbitcoinconsensus.so.0:_Z15BlockMerkleRootRK6CBlockPb
libbitcoinconsensus.so.0:_Z15FormatParagraphRKNSt7__cxx1112basic_stringIcSt11char_traitsIcESaIcEEEmm
libbitcoinconsensus.so.0:_Z15ParseFixedPointRKNSt7__cxx1112basic_stringIcSt11char_traitsIcESaIcEEEiPl
libbitcoinconsensus.so.0:_Z15timingsafe_bcmpPKhS0_m
libbitcoinconsensus.so.0:_Z16CheckTransactionRK12CTransactionR17TxValidationState
libbitcoinconsensus.so.0:_Z16SHA256AutoDetectB5cxx11v
libbitcoinconsensus.so.0:_Z17ComputeMerkleRootSt6vectorI7uint256SaIS0_EEPb
libbitcoinconsensus.so.0:_Z17ScriptErrorString13ScriptError_t
libbitcoinconsensus.so.0:_Z18CountWitnessSigOpsRK7CScriptS1_PK14CScriptWitnessj
libbitcoinconsensus.so.0:_Z19SipHashUint256ExtrammRK7uint256j
libbitcoinconsensus.so.0:_Z22BlockWitnessMerkleRootRK6CBlockPb
libbitcoinconsensus.so.0:_Z22CheckSignatureEncodingRKSt6vectorIhSaIhEEjP13ScriptError_t
libbitcoinconsensus.so.0:_Z4atoiRKNSt7__cxx1112basic_stringIcSt11char_traitsIcESaIcEEE
libbitcoinconsensus.so.0:_Z5IsHexRKNSt7__cxx1112basic_stringIcSt11char_traitsIcESaIcEEE
libbitcoinconsensus.so.0:_Z6atoi64PKc
libbitcoinconsensus.so.0:_Z6atoi64RKNSt7__cxx1112basic_stringIcSt11char_traitsIcESaIcEEE
libbitcoinconsensus.so.0:_Z7ToLowerRKNSt7__cxx1112basic_stringIcSt11char_traitsIcESaIcEEE
libbitcoinconsensus.so.0:_Z7ToUpperRKNSt7__cxx1112basic_stringIcSt11char_traitsIcESaIcEEE
libbitcoinconsensus.so.0:_Z8HexDigitc
libbitcoinconsensus.so.0:_Z8ParseHexPKc
libbitcoinconsensus.so.0:_Z8ParseHexRKNSt7__cxx1112basic_stringIcSt11char_traitsIcESaIcEEE
libbitcoinconsensus.so.0:_Z9BIP32HashRK7uint256jhPKhPh
libbitcoinconsensus.so.0:_Z9GetOpName10opcodetype
libbitcoinconsensus.so.0:_Z9SHA256D64PhPKhm
libbitcoinconsensus.so.0:_ZN10CExtPubKey6DecodeEPKh
libbitcoinconsensus.so.0:_ZN10CRIPEMD1605ResetEv
libbitcoinconsensus.so.0:_ZN10CRIPEMD1605WriteEPKhm
libbitcoinconsensus.so.0:_ZN10CRIPEMD1608FinalizeEPh
libbitcoinconsensus.so.0:_ZN10CRIPEMD160C1Ev
libbitcoinconsensus.so.0:_ZN10CRIPEMD160C2Ev
libbitcoinconsensus.so.0:_ZN10CSipHasher5WriteEPKhm
libbitcoinconsensus.so.0:_ZN10CSipHasher5WriteEm
libbitcoinconsensus.so.0:_ZN10CSipHasherC1Emm
libbitcoinconsensus.so.0:_ZN10CSipHasherC2Emm
libbitcoinconsensus.so.0:_ZN11sha256_sse49TransformEPjPKhm
libbitcoinconsensus.so.0:_ZN12CHMAC_SHA2568FinalizeEPh
libbitcoinconsensus.so.0:_ZN12CHMAC_SHA256C1EPKhm
libbitcoinconsensus.so.0:_ZN12CHMAC_SHA256C2EPKhm
libbitcoinconsensus.so.0:_ZN12CHMAC_SHA5128FinalizeEPh
libbitcoinconsensus.so.0:_ZN12CHMAC_SHA512C1EPKhm
libbitcoinconsensus.so.0:_ZN12CHMAC_SHA512C2EPKhm
libbitcoinconsensus.so.0:_ZN12CTransactionC1EO19CMutableTransaction
libbitcoinconsensus.so.0:_ZN12CTransactionC1ERK19CMutableTransaction
libbitcoinconsensus.so.0:_ZN12CTransactionC1Ev
libbitcoinconsensus.so.0:_ZN12CTransactionC2EO19CMutableTransaction
libbitcoinconsensus.so.0:_ZN12CTransactionC2ERK19CMutableTransaction
libbitcoinconsensus.so.0:_ZN12CTransactionC2Ev
libbitcoinconsensus.so.0:_ZN13AES256DecryptC1EPKh
libbitcoinconsensus.so.0:_ZN13AES256DecryptC2EPKh
libbitcoinconsensus.so.0:_ZN13AES256DecryptD1Ev
libbitcoinconsensus.so.0:_ZN13AES256DecryptD2Ev
libbitcoinconsensus.so.0:_ZN13AES256EncryptC1EPKh
libbitcoinconsensus.so.0:_ZN13AES256EncryptC2EPKh
libbitcoinconsensus.so.0:_ZN13AES256EncryptD1Ev
libbitcoinconsensus.so.0:_ZN13AES256EncryptD2Ev
libbitcoinconsensus.so.0:_ZN13arith_uint25610SetCompactEjPbS0_
libbitcoinconsensus.so.0:_ZN15ECCVerifyHandleC1Ev
libbitcoinconsensus.so.0:_ZN15ECCVerifyHandleC2Ev
libbitcoinconsensus.so.0:_ZN15ECCVerifyHandleD1Ev
libbitcoinconsensus.so.0:_ZN15ECCVerifyHandleD2Ev
libbitcoinconsensus.so.0:_ZN16AES256CBCDecryptC1EPKhS1_b
libbitcoinconsensus.so.0:_ZN16AES256CBCDecryptC2EPKhS1_b
libbitcoinconsensus.so.0:_ZN16AES256CBCDecryptD1Ev
libbitcoinconsensus.so.0:_ZN16AES256CBCDecryptD2Ev
libbitcoinconsensus.so.0:_ZN16AES256CBCEncryptC1EPKhS1_b
libbitcoinconsensus.so.0:_ZN16AES256CBCEncryptC2EPKhS1_b
libbitcoinconsensus.so.0:_ZN16AES256CBCEncryptD1Ev
libbitcoinconsensus.so.0:_ZN16AES256CBCEncryptD2Ev
libbitcoinconsensus.so.0:_ZN19CMutableTransactionC1ERK12CTransaction
libbitcoinconsensus.so.0:_ZN19CMutableTransactionC1Ev
libbitcoinconsensus.so.0:_ZN19CMutableTransactionC2ERK12CTransaction
libbitcoinconsensus.so.0:_ZN19CMutableTransactionC2Ev
libbitcoinconsensus.so.0:_ZN20ChaCha20Poly1305AEAD5CryptEmmiPhmPKhmb
libbitcoinconsensus.so.0:_ZN20ChaCha20Poly1305AEAD9GetLengthEPjmiPKh
libbitcoinconsensus.so.0:_ZN20ChaCha20Poly1305AEADC1EPKhmS1_m
libbitcoinconsensus.so.0:_ZN20ChaCha20Poly1305AEADC2EPKhmS1_m
libbitcoinconsensus.so.0:_ZN21CHKDF_HMAC_SHA256_L328Expand32ERKNSt7__cxx1112basic_stringIcSt11char_traitsIcESaIcEEEPh
libbitcoinconsensus.so.0:_ZN21CHKDF_HMAC_SHA256_L32C1EPKhmRKNSt7__cxx1112basic_stringIcSt11char_traitsIcESaIcEEE
libbitcoinconsensus.so.0:_ZN21CHKDF_HMAC_SHA256_L32C2EPKhmRKNSt7__cxx1112basic_stringIcSt11char_traitsIcESaIcEEE
libbitcoinconsensus.so.0:_ZN5CSHA15ResetEv
libbitcoinconsensus.so.0:_ZN5CSHA15WriteEPKhm
libbitcoinconsensus.so.0:_ZN5CSHA18FinalizeEPh
libbitcoinconsensus.so.0:_ZN5CSHA1C1Ev
libbitcoinconsensus.so.0:_ZN5CSHA1C2Ev
libbitcoinconsensus.so.0:_ZN5CTxInC1E7uint256j7CScriptj
libbitcoinconsensus.so.0:_ZN5CTxInC1E9COutPoint7CScriptj
libbitcoinconsensus.so.0:_ZN5CTxInC2E7uint256j7CScriptj
libbitcoinconsensus.so.0:_ZN5CTxInC2E9COutPoint7CScriptj
libbitcoinconsensus.so.0:_ZN6CTxOutC1ERKl7CScript
libbitcoinconsensus.so.0:_ZN6CTxOutC2ERKl7CScript
libbitcoinconsensus.so.0:_ZN7CPubKey10DecompressEv
libbitcoinconsensus.so.0:_ZN7CPubKey14RecoverCompactERK7uint256RKSt6vectorIhSaIhEE
libbitcoinconsensus.so.0:_ZN7CPubKey9CheckLowSERKSt6vectorIhSaIhEE
libbitcoinconsensus.so.0:_ZN7CSHA2565ResetEv
libbitcoinconsensus.so.0:_ZN7CSHA2565WriteEPKhm
libbitcoinconsensus.so.0:_ZN7CSHA2568FinalizeEPh
libbitcoinconsensus.so.0:_ZN7CSHA256C1Ev
libbitcoinconsensus.so.0:_ZN7CSHA256C2Ev
libbitcoinconsensus.so.0:_ZN7CSHA5125ResetEv
libbitcoinconsensus.so.0:_ZN7CSHA5125WriteEPKhm
libbitcoinconsensus.so.0:_ZN7CSHA5128FinalizeEPh
libbitcoinconsensus.so.0:_ZN7CSHA512C1Ev
libbitcoinconsensus.so.0:_ZN7CSHA512C2Ev
libbitcoinconsensus.so.0:_ZN8ChaCha204SeekEm
libbitcoinconsensus.so.0:_ZN8ChaCha205CryptEPKhPhm
libbitcoinconsensus.so.0:_ZN8ChaCha205SetIVEm
libbitcoinconsensus.so.0:_ZN8ChaCha206SetKeyEPKhm
libbitcoinconsensus.so.0:_ZN8ChaCha209KeystreamEPhm
libbitcoinconsensus.so.0:_ZN8ChaCha20C1EPKhm
libbitcoinconsensus.so.0:_ZN8ChaCha20C1Ev
libbitcoinconsensus.so.0:_ZN8ChaCha20C2EPKhm
libbitcoinconsensus.so.0:_ZN8ChaCha20C2Ev
libbitcoinconsensus.so.0:_ZNK10CExtPubKey6DeriveERS_j
libbitcoinconsensus.so.0:_ZNK10CExtPubKey6EncodeEPh
libbitcoinconsensus.so.0:_ZNK10CSipHasher8FinalizeEv
libbitcoinconsensus.so.0:_ZNK12CBlockHeader7GetHashEv
libbitcoinconsensus.so.0:_ZNK12CTransaction11ComputeHashEv
libbitcoinconsensus.so.0:_ZNK12CTransaction11GetValueOutEv
libbitcoinconsensus.so.0:_ZNK12CTransaction12GetTotalSizeEv
libbitcoinconsensus.so.0:_ZNK12CTransaction18ComputeWitnessHashEv
libbitcoinconsensus.so.0:_ZNK12CTransaction8ToStringB5cxx11Ev
libbitcoinconsensus.so.0:_ZNK13AES256Decrypt7DecryptEPhPKh
libbitcoinconsensus.so.0:_ZNK13AES256Encrypt7EncryptEPhPKh
libbitcoinconsensus.so.0:_ZNK13arith_uint25610GetCompactEb
libbitcoinconsensus.so.0:_ZNK14CScriptWitness8ToStringB5cxx11Ev
libbitcoinconsensus.so.0:_ZNK16AES256CBCDecrypt7DecryptEPKhiPh
libbitcoinconsensus.so.0:_ZNK16AES256CBCEncrypt7EncryptEPKhiPh
libbitcoinconsensus.so.0:_ZNK19CMutableTransaction7GetHashEv
libbitcoinconsensus.so.0:_ZNK5CTxIn8ToStringB5cxx11Ev
libbitcoinconsensus.so.0:_ZNK6CBlock8ToStringB5cxx11Ev
libbitcoinconsensus.so.0:_ZNK6CTxOut8ToStringB5cxx11Ev
libbitcoinconsensus.so.0:_ZNK7CPubKey12IsFullyValidEv
libbitcoinconsensus.so.0:_ZNK7CPubKey6DeriveERS_R7uint256jRKS1_
libbitcoinconsensus.so.0:_ZNK7CPubKey6VerifyERK7uint256RKSt6vectorIhSaIhEE
libbitcoinconsensus.so.0:_ZNK7CScript10IsPushOnlyEN9prevectorILj28EhjiE14const_iteratorE
libbitcoinconsensus.so.0:_ZNK7CScript10IsPushOnlyEv
libbitcoinconsensus.so.0:_ZNK7CScript11HasValidOpsEv
libbitcoinconsensus.so.0:_ZNK7CScript13GetSigOpCountERKS_
libbitcoinconsensus.so.0:_ZNK7CScript13GetSigOpCountEb
libbitcoinconsensus.so.0:_ZNK7CScript16IsWitnessProgramERiRSt6vectorIhSaIhEE
libbitcoinconsensus.so.0:_ZNK7CScript17IsPayToScriptHashEv
libbitcoinconsensus.so.0:_ZNK7CScript24IsPayToWitnessScriptHashEv
libbitcoinconsensus.so.0:_ZNK9COutPoint8ToStringB5cxx11Ev
libbitcoinconsensus.so.0:bitcoinconsensus_verify_script
libbitcoinconsensus.so.0:bitcoinconsensus_verify_script_with_amount
libbitcoinconsensus.so.0:bitcoinconsensus_version
libbitcoinconsensus.so.0:secp256k1_context_clone
libbitcoinconsensus.so.0:secp256k1_context_create
libbitcoinconsensus.so.0:secp256k1_context_destroy
libbitcoinconsensus.so.0:secp256k1_context_randomize
libbitcoinconsensus.so.0:secp256k1_context_set_error_callback
libbitcoinconsensus.so.0:secp256k1_context_set_illegal_callback
libbitcoinconsensus.so.0:secp256k1_ec_privkey_negate
libbitcoinconsensus.so.0:secp256k1_ec_privkey_tweak_add
libbitcoinconsensus.so.0:secp256k1_ec_privkey_tweak_mul
libbitcoinconsensus.so.0:secp256k1_ec_pubkey_combine
libbitcoinconsensus.so.0:secp256k1_ec_pubkey_create
libbitcoinconsensus.so.0:secp256k1_ec_pubkey_negate
libbitcoinconsensus.so.0:secp256k1_ec_pubkey_parse
libbitcoinconsensus.so.0:secp256k1_ec_pubkey_serialize
libbitcoinconsensus.so.0:secp256k1_ec_pubkey_tweak_add
libbitcoinconsensus.so.0:secp256k1_ec_pubkey_tweak_mul
libbitcoinconsensus.so.0:secp256k1_ec_seckey_verify
libbitcoinconsensus.so.0:secp256k1_ecdsa_recover
libbitcoinconsensus.so.0:secp256k1_ecdsa_recoverable_signature_convert
libbitcoinconsensus.so.0:secp256k1_ecdsa_recoverable_signature_parse_compact
libbitcoinconsensus.so.0:secp256k1_ecdsa_recoverable_signature_serialize_compact
libbitcoinconsensus.so.0:secp256k1_ecdsa_sign
libbitcoinconsensus.so.0:secp256k1_ecdsa_sign_recoverable
libbitcoinconsensus.so.0:secp256k1_ecdsa_signature_normalize
libbitcoinconsensus.so.0:secp256k1_ecdsa_signature_parse_compact
libbitcoinconsensus.so.0:secp256k1_ecdsa_signature_parse_der
libbitcoinconsensus.so.0:secp256k1_ecdsa_signature_serialize_compact
libbitcoinconsensus.so.0:secp256k1_ecdsa_signature_serialize_der
libbitcoinconsensus.so.0:secp256k1_ecdsa_verify
libbitcoinconsensus.so.0:secp256k1_scratch_space_create
libbitcoinconsensus.so.0:secp256k1_scratch_space_destroy
